; Function Attrs: mustprogress uwtable
define dso_local noalias noundef nonnull ptr @_ZNK7msdfgen13LinearSegment5cloneEv(ptr nocapture noundef nonnull readonly align 8 dereferenceable(48) %this) unnamed_addr #0 align 2 personality ptr @__gxx_personality_v0 {
invoke.cont:
  %call = tail call noalias noundef nonnull dereferenceable(48) ptr @_Znwm(i64 noundef 48) #15
  %p = getelementptr inbounds i8, ptr %this, i64 16
  %arrayidx4 = getelementptr inbounds i8, ptr %this, i64 32
  %color = getelementptr inbounds i8, ptr %this, i64 8
  %0 = load i32, ptr %color, align 8
  %color.i.i = getelementptr inbounds i8, ptr %call, i64 8
  store i32 %0, ptr %color.i.i, align 8
  store ptr getelementptr inbounds ({ [18 x ptr] }, ptr @_ZTVN7msdfgen13LinearSegmentE, i64 0, i32 0, i64 2), ptr %call, align 8
  %scevgep.i = getelementptr inbounds i8, ptr %call, i64 16
  %1 = load <2 x double>, ptr %p, align 8
  store <2 x double> %1, ptr %scevgep.i, align 8
  %arrayidx4.i = getelementptr inbounds i8, ptr %call, i64 32
  %2 = load <2 x double>, ptr %arrayidx4, align 8
  store <2 x double> %2, ptr %arrayidx4.i, align 8
  ret ptr %call
}